; Function Attrs: mustprogress nounwind uwtable
define dso_local void @_ZNK5clang6driver13OffloadAction18doOnEachDependenceEbRKN4llvm12function_refIFvPNS0_6ActionEPKNS0_9ToolChainEPKcEEE(ptr noundef nonnull align 8 dereferenceable(136) %0, i1 noundef zeroext %1, ptr nocapture noundef nonnull readonly align 8 dereferenceable(16) %2) local_unnamed_addr #0 align 2 {
  br i1 %1, label %4, label %16

4:                                                ; preds = %3
  %5 = getelementptr inbounds nuw i8, ptr %0, i64 88
  %6 = load ptr, ptr %5, align 8
  %.not.i = icmp eq ptr %6, null
  br i1 %.not.i, label %_ZNK5clang6driver13OffloadAction18doOnHostDependenceERKN4llvm12function_refIFvPNS0_6ActionEPKNS0_9ToolChainEPKcEEE.exit, label %7

7:                                                ; preds = %4
  %8 = getelementptr inbounds nuw i8, ptr %0, i64 16
  %9 = load ptr, ptr %8, align 8
  %10 = load ptr, ptr %9, align 8
  %11 = getelementptr inbounds nuw i8, ptr %10, i64 72
  %12 = load ptr, ptr %11, align 8
  %13 = load ptr, ptr %2, align 8
  %14 = getelementptr inbounds nuw i8, ptr %2, i64 8
  %15 = load i64, ptr %14, align 8
  tail call void %13(i64 noundef %15, ptr noundef %10, ptr noundef nonnull %6, ptr noundef %12) #11
  br label %_ZNK5clang6driver13OffloadAction18doOnHostDependenceERKN4llvm12function_refIFvPNS0_6ActionEPKNS0_9ToolChainEPKcEEE.exit

16:                                               ; preds = %3
  %17 = getelementptr inbounds nuw i8, ptr %0, i64 16
  %18 = load ptr, ptr %17, align 8
  %19 = tail call noundef i64 @_ZNK4llvm15SmallVectorBaseIjE4sizeEv(ptr noundef nonnull align 8 dereferenceable(16) %17) #11
  %.idx.i = shl nsw i64 %19, 3
  %20 = getelementptr inbounds i8, ptr %18, i64 %.idx.i
  %21 = icmp eq i64 %19, 0
  br i1 %21, label %_ZNK5clang6driver13OffloadAction18doOnHostDependenceERKN4llvm12function_refIFvPNS0_6ActionEPKNS0_9ToolChainEPKcEEE.exit, label %22

22:                                               ; preds = %16
  %23 = getelementptr inbounds nuw i8, ptr %0, i64 88
  %24 = load ptr, ptr %23, align 8
  %.not.i3 = icmp eq ptr %24, null
  %spec.select.idx.i = select i1 %.not.i3, i64 0, i64 8
  %.not1516.i = icmp eq i64 %spec.select.idx.i, %.idx.i
  br i1 %.not1516.i, label %_ZNK5clang6driver13OffloadAction18doOnHostDependenceERKN4llvm12function_refIFvPNS0_6ActionEPKNS0_9ToolChainEPKcEEE.exit, label %.lr.ph.i

.lr.ph.i:                                         ; preds = %22
  %spec.select.i = getelementptr inbounds i8, ptr %18, i64 %spec.select.idx.i
  %25 = getelementptr inbounds nuw i8, ptr %0, i64 96
  %26 = load ptr, ptr %25, align 8
  %27 = getelementptr inbounds nuw i8, ptr %2, i64 8
  br label %28

28:                                               ; preds = %28, %.lr.ph.i
  %.018.i = phi ptr [ %26, %.lr.ph.i ], [ %36, %28 ]
  %.117.i = phi ptr [ %spec.select.i, %.lr.ph.i ], [ %35, %28 ]
  %29 = load ptr, ptr %.117.i, align 8
  %30 = load ptr, ptr %.018.i, align 8
  %31 = getelementptr inbounds nuw i8, ptr %29, i64 72
  %32 = load ptr, ptr %31, align 8
  %33 = load ptr, ptr %2, align 8
  %34 = load i64, ptr %27, align 8
  tail call void %33(i64 noundef %34, ptr noundef %29, ptr noundef %30, ptr noundef %32) #11
  %35 = getelementptr inbounds i8, ptr %.117.i, i64 8
  %36 = getelementptr inbounds i8, ptr %.018.i, i64 8
  %.not15.i = icmp eq ptr %35, %20
  br i1 %.not15.i, label %_ZNK5clang6driver13OffloadAction18doOnHostDependenceERKN4llvm12function_refIFvPNS0_6ActionEPKNS0_9ToolChainEPKcEEE.exit, label %28, !llvm.loop !11

_ZNK5clang6driver13OffloadAction18doOnHostDependenceERKN4llvm12function_refIFvPNS0_6ActionEPKNS0_9ToolChainEPKcEEE.exit: ; preds = %28, %22, %16, %7, %4
  ret void
}